; ModuleID = '54/270.c'
source_filename = "54/270.c"
target datalayout = "e-m:e-p270:32:32-p271:32:32-p272:64:64-i64:64-f80:128-n8:16:32:64-S128"
target triple = "x86_64-pc-linux-gnu"

@.str = private unnamed_addr constant [6 x i8] c"%d %d\00", align 1
@.str.1 = private unnamed_addr constant [3 x i8] c"%d\00", align 1

; Function Attrs: noinline nounwind uwtable
define dso_local void @main() #0 {
  %1 = alloca i32, align 4
  %2 = alloca i32, align 4
  %3 = alloca i32, align 4
  %4 = alloca i32, align 4
  %5 = alloca i32, align 4
  %6 = call i32 (i8*, ...) @__isoc99_scanf(i8* getelementptr inbounds ([6 x i8], [6 x i8]* @.str, i64 0, i64 0), i32* %5, i32* %4)
  %7 = load i32, i32* %5, align 4
  %8 = sub nsw i32 %7, 1
  store i32 %8, i32* %2, align 4
  %9 = load i32, i32* %5, align 4
  %10 = sub nsw i32 %9, 1
  store i32 %10, i32* %1, align 4
  store i32 1, i32* %3, align 4
  br label %11

11:                                               ; preds = %48, %0
  %12 = load i32, i32* %3, align 4
  %13 = load i32, i32* %5, align 4
  %14 = sub nsw i32 %13, 1
  %15 = icmp sle i32 %12, %14
  br i1 %15, label %16, label %51

16:                                               ; preds = %11
  %17 = load i32, i32* %1, align 4
  %18 = load i32, i32* %5, align 4
  %19 = mul nsw i32 %17, %18
  %20 = load i32, i32* %5, align 4
  %21 = sub nsw i32 %20, 1
  %22 = sdiv i32 %19, %21
  %23 = load i32, i32* %4, align 4
  %24 = add nsw i32 %22, %23
  %25 = load i32, i32* %5, align 4
  %26 = sub nsw i32 %25, 1
  %27 = srem i32 %24, %26
  %28 = icmp ne i32 %27, 0
  br i1 %28, label %29, label %38

29:                                               ; preds = %16
  %30 = load i32, i32* %2, align 4
  %31 = load i32, i32* %5, align 4
  %32 = add nsw i32 %30, %31
  %33 = sub nsw i32 %32, 1
  store i32 %33, i32* %1, align 4
  %34 = load i32, i32* %2, align 4
  %35 = load i32, i32* %5, align 4
  %36 = add nsw i32 %34, %35
  %37 = sub nsw i32 %36, 1
  store i32 %37, i32* %2, align 4
  store i32 0, i32* %3, align 4
  br label %47

38:                                               ; preds = %16
  %39 = load i32, i32* %1, align 4
  %40 = load i32, i32* %5, align 4
  %41 = mul nsw i32 %39, %40
  %42 = load i32, i32* %5, align 4
  %43 = sub nsw i32 %42, 1
  %44 = sdiv i32 %41, %43
  %45 = load i32, i32* %4, align 4
  %46 = add nsw i32 %44, %45
  store i32 %46, i32* %1, align 4
  br label %47

47:                                               ; preds = %38, %29
  br label %48

48:                                               ; preds = %47
  %49 = load i32, i32* %3, align 4
  %50 = add nsw i32 %49, 1
  store i32 %50, i32* %3, align 4
  br label %11

51:                                               ; preds = %11
  %52 = load i32, i32* %1, align 4
  %53 = load i32, i32* %5, align 4
  %54 = mul nsw i32 %52, %53
  %55 = load i32, i32* %5, align 4
  %56 = sub nsw i32 %55, 1
  %57 = sdiv i32 %54, %56
  %58 = load i32, i32* %4, align 4
  %59 = add nsw i32 %57, %58
  %60 = call i32 (i8*, ...) @printf(i8* getelementptr inbounds ([3 x i8], [3 x i8]* @.str.1, i64 0, i64 0), i32 %59)
  ret void
}

declare dso_local i32 @__isoc99_scanf(i8*, ...) #1

declare dso_local i32 @printf(i8*, ...) #1


!llvm.module.flags = !{!0}
!llvm.ident = !{!1}

!0 = !{i32 1, !"wchar_size", i32 4}
!1 = !{!"clang version 10.0.0-4ubuntu1 "}
