; ModuleID = 'source-C-CXX/53/270.c'
source_filename = "source-C-CXX/53/270.c"
target datalayout = "e-m:e-p270:32:32-p271:32:32-p272:64:64-i64:64-f80:128-n8:16:32:64-S128"
target triple = "x86_64-pc-linux-gnu"

@.str = private unnamed_addr constant [6 x i8] c"%d %d\00", align 1
@.str.1 = private unnamed_addr constant [3 x i8] c"%d\00", align 1

; Function Attrs: nofree nounwind sspstrong uwtable
define dso_local void @main() local_unnamed_addr #0 {
  %1 = alloca i32, align 4
  %2 = alloca i32, align 4
  %3 = bitcast i32* %1 to i8*
  call void @llvm.lifetime.start.p0i8(i64 4, i8* nonnull %3) #3
  %4 = bitcast i32* %2 to i8*
  call void @llvm.lifetime.start.p0i8(i64 4, i8* nonnull %4) #3
  %5 = call i32 (i8*, ...) @__isoc99_scanf(i8* getelementptr inbounds ([6 x i8], [6 x i8]* @.str, i64 0, i64 0), i32* nonnull %2, i32* nonnull %1)
  %6 = load i32, i32* %2, align 4, !tbaa !5
  %7 = add i32 %6, -1
  %8 = load i32, i32* %1, align 4
  %9 = icmp sgt i32 %6, 1
  br i1 %9, label %10, label %25

10:                                               ; preds = %0, %10
  %11 = phi i32 [ %23, %10 ], [ 1, %0 ]
  %12 = phi i32 [ %21, %10 ], [ %7, %0 ]
  %13 = phi i32 [ %20, %10 ], [ %7, %0 ]
  %14 = mul nsw i32 %13, %6
  %15 = sdiv i32 %14, %7
  %16 = add nsw i32 %8, %15
  %17 = srem i32 %16, %7
  %18 = icmp eq i32 %17, 0
  %19 = add i32 %7, %12
  %20 = select i1 %18, i32 %16, i32 %19
  %21 = select i1 %18, i32 %12, i32 %19
  %22 = add nsw i32 %11, 1
  %23 = select i1 %18, i32 %22, i32 1
  %24 = icmp slt i32 %23, %6
  br i1 %24, label %10, label %25, !llvm.loop !9

25:                                               ; preds = %10, %0
  %26 = phi i32 [ %7, %0 ], [ %20, %10 ]
  %27 = mul nsw i32 %26, %6
  %28 = sdiv i32 %27, %7
  %29 = add nsw i32 %8, %28
  %30 = call i32 (i8*, ...) @printf(i8* nonnull dereferenceable(1) getelementptr inbounds ([3 x i8], [3 x i8]* @.str.1, i64 0, i64 0), i32 %29)
  call void @llvm.lifetime.end.p0i8(i64 4, i8* nonnull %4) #3
  call void @llvm.lifetime.end.p0i8(i64 4, i8* nonnull %3) #3
  ret void
}

; Function Attrs: argmemonly mustprogress nofree nosync nounwind willreturn
declare void @llvm.lifetime.start.p0i8(i64 immarg, i8* nocapture) #1

; Function Attrs: nofree nounwind
declare noundef i32 @__isoc99_scanf(i8* nocapture noundef readonly, ...) local_unnamed_addr #2

; Function Attrs: nofree nounwind
declare noundef i32 @printf(i8* nocapture noundef readonly, ...) local_unnamed_addr #2

; Function Attrs: argmemonly mustprogress nofree nosync nounwind willreturn
declare void @llvm.lifetime.end.p0i8(i64 immarg, i8* nocapture) #1


!llvm.module.flags = !{!0, !1, !2, !3}
!llvm.ident = !{!4}

!0 = !{i32 1, !"wchar_size", i32 4}
!1 = !{i32 7, !"PIC Level", i32 2}
!2 = !{i32 7, !"PIE Level", i32 2}
!3 = !{i32 7, !"uwtable", i32 1}
!4 = !{!"clang version 13.0.0"}
!5 = !{!6, !6, i64 0}
!6 = !{!"int", !7, i64 0}
!7 = !{!"omnipotent char", !8, i64 0}
!8 = !{!"Simple C/C++ TBAA"}
!9 = distinct !{!9, !10}
!10 = !{!"llvm.loop.mustprogress"}
